target datalayout = "e-m:e-p270:32:32-p271:32:32-p272:64:64-i64:64-i128:128-f80:128-n8:16:32:64-S128"
target triple = "x86_64-unknown-linux-gnu"

%"class.v8::Local" = type { %"class.v8::LocalBase" }
%"class.v8::LocalBase" = type { %"class.v8::IndirectHandleBase" }
%"class.v8::IndirectHandleBase" = type { ptr }
%"class.node::fs_dir::DirHandle" = type <{ %"class.node::AsyncWrap", ptr, %"class.std::vector", i8, i8, [6 x i8] }>
%"class.node::AsyncWrap" = type { %"class.node::BaseObject", i32, i8, double, double }
%"class.node::BaseObject" = type { %"class.node::MemoryRetainer", %"class.v8::Global", ptr, ptr }
%"class.node::MemoryRetainer" = type { ptr }
%"class.v8::Global" = type { %"class.v8::PersistentBase" }
%"class.v8::PersistentBase" = type { %"class.v8::IndirectHandleBase" }
%"class.std::vector" = type { %"struct.std::_Vector_base" }
%"struct.std::_Vector_base" = type { %"struct.std::_Vector_base<uv_dirent_s, std::allocator<uv_dirent_s>>::_Vector_impl" }
%"struct.std::_Vector_base<uv_dirent_s, std::allocator<uv_dirent_s>>::_Vector_impl" = type { %"struct.std::_Vector_base<uv_dirent_s, std::allocator<uv_dirent_s>>::_Vector_impl_data" }
%"struct.std::_Vector_base<uv_dirent_s, std::allocator<uv_dirent_s>>::_Vector_impl_data" = type { ptr, ptr, ptr }
%struct.uv_dir_s = type { ptr, i64, [4 x ptr], ptr }

; Function Attrs: mustprogress nounwind uwtable
define linkonce_odr dso_local void @_ZNSt15__new_allocatorI11uv_dirent_sEC2Ev(ptr noundef nonnull align 1 dereferenceable(1) %this) unnamed_addr #4 comdat align 2 {
entry:
  %this.addr = alloca ptr, align 8
  store ptr %this, ptr %this.addr, align 8
  ret void
}

; Function Attrs: mustprogress nounwind uwtable
define linkonce_odr dso_local void @_ZNSt12_Vector_baseI11uv_dirent_sSaIS0_EE17_Vector_impl_dataC2Ev(ptr noundef nonnull align 8 dereferenceable(24) %this) unnamed_addr #4 comdat align 2 {
entry:
  %this.addr = alloca ptr, align 8
  store ptr %this, ptr %this.addr, align 8
  %this1 = load ptr, ptr %this.addr, align 8
  %_M_start = getelementptr inbounds %"struct.std::_Vector_base<uv_dirent_s, std::allocator<uv_dirent_s>>::_Vector_impl_data", ptr %this1, i32 0, i32 0
  store ptr null, ptr %_M_start, align 8
  %_M_finish = getelementptr inbounds %"struct.std::_Vector_base<uv_dirent_s, std::allocator<uv_dirent_s>>::_Vector_impl_data", ptr %this1, i32 0, i32 1
  store ptr null, ptr %_M_finish, align 8
  %_M_end_of_storage = getelementptr inbounds %"struct.std::_Vector_base<uv_dirent_s, std::allocator<uv_dirent_s>>::_Vector_impl_data", ptr %this1, i32 0, i32 2
  store ptr null, ptr %_M_end_of_storage, align 8
  ret void
}

; Function Attrs: mustprogress nounwind uwtable
define linkonce_odr dso_local void @_ZNSaI11uv_dirent_sEC2Ev(ptr noundef nonnull align 1 dereferenceable(1) %this) unnamed_addr #4 comdat align 2 {
entry:
  %this.addr = alloca ptr, align 8
  store ptr %this, ptr %this.addr, align 8
  %this1 = load ptr, ptr %this.addr, align 8
  call void @_ZNSt15__new_allocatorI11uv_dirent_sEC2Ev(ptr noundef nonnull align 1 dereferenceable(1) %this1) #3
  ret void
}

; Function Attrs: mustprogress nounwind uwtable
define linkonce_odr dso_local void @_ZNSt12_Vector_baseI11uv_dirent_sSaIS0_EE12_Vector_implC2Ev(ptr noundef nonnull align 8 dereferenceable(24) %this) unnamed_addr #4 comdat align 2 {
entry:
  %this.addr = alloca ptr, align 8
  store ptr %this, ptr %this.addr, align 8
  %this1 = load ptr, ptr %this.addr, align 8
  call void @_ZNSaI11uv_dirent_sEC2Ev(ptr noundef nonnull align 1 dereferenceable(1) %this1) #3
  call void @_ZNSt12_Vector_baseI11uv_dirent_sSaIS0_EE17_Vector_impl_dataC2Ev(ptr noundef nonnull align 8 dereferenceable(24) %this1) #3
  ret void
}

; Function Attrs: mustprogress nounwind uwtable
define linkonce_odr dso_local void @_ZNSt12_Vector_baseI11uv_dirent_sSaIS0_EEC2Ev(ptr noundef nonnull align 8 dereferenceable(24) %this) unnamed_addr #4 comdat align 2 {
entry:
  %this.addr = alloca ptr, align 8
  store ptr %this, ptr %this.addr, align 8
  %this1 = load ptr, ptr %this.addr, align 8
  %_M_impl = getelementptr inbounds %"struct.std::_Vector_base", ptr %this1, i32 0, i32 0
  call void @_ZNSt12_Vector_baseI11uv_dirent_sSaIS0_EE12_Vector_implC2Ev(ptr noundef nonnull align 8 dereferenceable(24) %_M_impl) #3
  ret void
}

; Function Attrs: mustprogress nounwind uwtable
define linkonce_odr dso_local void @_ZNSt6vectorI11uv_dirent_sSaIS0_EEC2Ev(ptr noundef nonnull align 8 dereferenceable(24) %this) unnamed_addr #4 comdat align 2 {
entry:
  %this.addr = alloca ptr, align 8
  store ptr %this, ptr %this.addr, align 8
  %this1 = load ptr, ptr %this.addr, align 8
  call void @_ZNSt12_Vector_baseI11uv_dirent_sSaIS0_EEC2Ev(ptr noundef nonnull align 8 dereferenceable(24) %this1) #3
  ret void
}

; Function Attrs: mustprogress nounwind uwtable
define dso_local void @_ZN4node6fs_dir9DirHandleC2EPNS_11EnvironmentEN2v85LocalINS4_6ObjectEEEP8uv_dir_s(ptr noundef nonnull align 8 dereferenceable(90) %this, ptr noundef %env, ptr %obj.coerce, ptr noundef %dir) unnamed_addr #4 align 2 {
entry:
  %obj = alloca %"class.v8::Local", align 8
  %this.addr = alloca ptr, align 8
  %env.addr = alloca ptr, align 8
  %dir.addr = alloca ptr, align 8
  %agg.tmp = alloca %"class.v8::Local", align 8
  %coerce.dive = getelementptr inbounds %"class.v8::Local", ptr %obj, i32 0, i32 0
  %coerce.dive1 = getelementptr inbounds %"class.v8::LocalBase", ptr %coerce.dive, i32 0, i32 0
  %coerce.dive2 = getelementptr inbounds %"class.v8::IndirectHandleBase", ptr %coerce.dive1, i32 0, i32 0
  store ptr %obj.coerce, ptr %coerce.dive2, align 8
  store ptr %this, ptr %this.addr, align 8
  store ptr %env, ptr %env.addr, align 8
  store ptr %dir, ptr %dir.addr, align 8
  %this3 = load ptr, ptr %this.addr, align 8
  %0 = load ptr, ptr %env.addr, align 8
  call void @llvm.memcpy.p0.p0.i64(ptr align 8 %agg.tmp, ptr align 8 %obj, i64 8, i1 false)
  %coerce.dive4 = getelementptr inbounds %"class.v8::Local", ptr %agg.tmp, i32 0, i32 0
  %coerce.dive5 = getelementptr inbounds %"class.v8::LocalBase", ptr %coerce.dive4, i32 0, i32 0
  %coerce.dive6 = getelementptr inbounds %"class.v8::IndirectHandleBase", ptr %coerce.dive5, i32 0, i32 0
  %1 = load ptr, ptr %coerce.dive6, align 8
  call void @_ZN4node9AsyncWrapC2EPNS_11EnvironmentEN2v85LocalINS3_6ObjectEEENS0_12ProviderTypeEd(ptr noundef nonnull align 8 dereferenceable(56) %this3, ptr noundef %0, ptr %1, i32 noundef 1, double noundef -1.000000e+00)
  store ptr getelementptr inbounds ({ [20 x ptr] }, ptr @_ZTVN4node6fs_dir9DirHandleE, i32 0, i32 0, i32 2), ptr %this3, align 8
  %dir_ = getelementptr inbounds %"class.node::fs_dir::DirHandle", ptr %this3, i32 0, i32 1
  %2 = load ptr, ptr %dir.addr, align 8
  store ptr %2, ptr %dir_, align 8
  %dirents_ = getelementptr inbounds %"class.node::fs_dir::DirHandle", ptr %this3, i32 0, i32 2
  call void @_ZNSt6vectorI11uv_dirent_sSaIS0_EEC2Ev(ptr noundef nonnull align 8 dereferenceable(24) %dirents_) #3
  %closing_ = getelementptr inbounds %"class.node::fs_dir::DirHandle", ptr %this3, i32 0, i32 3
  store i8 0, ptr %closing_, align 8
  %closed_ = getelementptr inbounds %"class.node::fs_dir::DirHandle", ptr %this3, i32 0, i32 4
  store i8 0, ptr %closed_, align 1
  call void @_ZN4node10BaseObject8MakeWeakEv(ptr noundef nonnull align 8 dereferenceable(32) %this3)
  %dir_7 = getelementptr inbounds %"class.node::fs_dir::DirHandle", ptr %this3, i32 0, i32 1
  %3 = load ptr, ptr %dir_7, align 8
  %nentries = getelementptr inbounds %struct.uv_dir_s, ptr %3, i32 0, i32 1
  store i64 0, ptr %nentries, align 8
  %dir_8 = getelementptr inbounds %"class.node::fs_dir::DirHandle", ptr %this3, i32 0, i32 1
  %4 = load ptr, ptr %dir_8, align 8
  %dirents = getelementptr inbounds %struct.uv_dir_s, ptr %4, i32 0, i32 0
  store ptr null, ptr %dirents, align 8
  ret void
}