; Function Attrs: mustprogress nounwind uwtable
define dso_local void @_ZN4node6fs_dir9DirHandleC2EPNS_11EnvironmentEN2v85LocalINS4_6ObjectEEEP8uv_dir_s(ptr noundef nonnull align 8 dereferenceable(90) %this, ptr noundef %env, ptr %obj.coerce, ptr noundef %dir) unnamed_addr #3 align 2 {
entry:
  tail call void @_ZN4node9AsyncWrapC2EPNS_11EnvironmentEN2v85LocalINS3_6ObjectEEENS0_12ProviderTypeEd(ptr noundef nonnull align 8 dereferenceable(56) %this, ptr noundef %env, ptr %obj.coerce, i32 noundef 1, double noundef -1.000000e+00) #20
  store ptr getelementptr inbounds ({ [20 x ptr] }, ptr @_ZTVN4node6fs_dir9DirHandleE, i64 0, i32 0, i64 2), ptr %this, align 8
  %dir_ = getelementptr inbounds i8, ptr %this, i64 56
  store ptr %dir, ptr %dir_, align 8
  %dirents_ = getelementptr inbounds i8, ptr %this, i64 64
  tail call void @llvm.memset.p0.i64(ptr noundef nonnull align 8 dereferenceable(26) %dirents_, i8 0, i64 26, i1 false)
  tail call void @_ZN4node10BaseObject8MakeWeakEv(ptr noundef nonnull align 8 dereferenceable(32) %this) #20
  %0 = load ptr, ptr %dir_, align 8
  %nentries = getelementptr inbounds i8, ptr %0, i64 8
  store i64 0, ptr %nentries, align 8
  %1 = load ptr, ptr %dir_, align 8
  store ptr null, ptr %1, align 8
  ret void
}